target datalayout = "e-m:e-p270:32:32-p271:32:32-p272:64:64-i64:64-i128:128-f80:128-n8:16:32:64-S128"
target triple = "x86_64-pc-linux-gnu"

%struct.png_struct_def = type { [1 x %struct.__jmp_buf_tag], ptr, ptr, i64, ptr, ptr, ptr, ptr, ptr, ptr, ptr, ptr, ptr, i8, i8, i32, i32, i32, i32, %struct.z_stream_s, ptr, i32, i32, i32, i32, i32, i32, i32, i32, i32, i32, i32, i32, i32, i32, i32, i32, i32, i32, i32, i32, i32, i64, i32, i32, i32, ptr, ptr, ptr, ptr, i64, i32, i32, ptr, i16, i32, i16, i8, i8, i8, i8, i8, i8, i8, i8, i8, i8, i8, i8, i8, i8, i8, i16, i8, i32, %struct.png_color_16_struct, %struct.png_color_16_struct, ptr, i32, i32, %struct.png_xy, i32, i32, i32, i32, i32, ptr, ptr, ptr, ptr, ptr, ptr, %struct.png_color_8_struct, %struct.png_color_8_struct, ptr, %struct.png_color_16_struct, ptr, ptr, ptr, ptr, ptr, ptr, ptr, ptr, ptr, i32, i32, i64, i64, i64, i64, i32, i32, ptr, ptr, i32, [29 x i8], i32, ptr, ptr, i32, i32, ptr, i8, i8, i16, i16, ptr, i32, i8, ptr, ptr, ptr, ptr, ptr, ptr, ptr, i8, i32, i32, i32, i64, %struct.png_unknown_chunk_t, i64, ptr, i64, i32, i32, ptr, [4 x ptr] }
%struct.__jmp_buf_tag = type { [8 x i64], i32, %struct.__sigset_t }
%struct.__sigset_t = type { [16 x i64] }
%struct.z_stream_s = type { ptr, i32, i64, ptr, i32, i64, ptr, ptr, ptr, ptr, ptr, i32, i64, i64 }
%struct.png_xy = type { i32, i32, i32, i32, i32, i32, i32, i32 }
%struct.png_color_8_struct = type { i8, i8, i8, i8, i8 }
%struct.png_color_16_struct = type { i8, i16, i16, i16, i16 }
%struct.png_unknown_chunk_t = type { [5 x i8], ptr, i64, i8 }

@.str.30 = private unnamed_addr constant [8 x i8] c"invalid\00", align 1

; Function Attrs: nounwind uwtable
define internal i32 @png_get_int_32_checked(ptr noundef %0, ptr noundef %1) #0 {
  %3 = alloca i32, align 4
  %4 = alloca ptr, align 8
  %5 = alloca ptr, align 8
  %6 = alloca i32, align 4
  %7 = alloca i32, align 4
  store ptr %0, ptr %4, align 8, !tbaa !8
  store ptr %1, ptr %5, align 8, !tbaa !58
  call void @llvm.lifetime.start.p0(i64 4, ptr %6) #7
  %8 = load ptr, ptr %4, align 8, !tbaa !8
  %9 = load i8, ptr %8, align 1, !tbaa !10
  %10 = zext i8 %9 to i32
  %11 = shl i32 %10, 24
  %12 = load ptr, ptr %4, align 8, !tbaa !8
  %13 = getelementptr inbounds i8, ptr %12, i64 1
  %14 = load i8, ptr %13, align 1, !tbaa !10
  %15 = zext i8 %14 to i32
  %16 = shl i32 %15, 16
  %17 = add i32 %11, %16
  %18 = load ptr, ptr %4, align 8, !tbaa !8
  %19 = getelementptr inbounds i8, ptr %18, i64 2
  %20 = load i8, ptr %19, align 1, !tbaa !10
  %21 = zext i8 %20 to i32
  %22 = shl i32 %21, 8
  %23 = add i32 %17, %22
  %24 = load ptr, ptr %4, align 8, !tbaa !8
  %25 = getelementptr inbounds i8, ptr %24, i64 3
  %26 = load i8, ptr %25, align 1, !tbaa !10
  %27 = zext i8 %26 to i32
  %28 = add i32 %23, %27
  store i32 %28, ptr %6, align 4, !tbaa !11
  %29 = load i32, ptr %6, align 4, !tbaa !11
  %30 = and i32 %29, -2147483648
  %31 = icmp eq i32 %30, 0
  br i1 %31, label %32, label %34

32:                                               ; preds = %2
  %33 = load i32, ptr %6, align 4, !tbaa !11
  store i32 %33, ptr %3, align 4
  store i32 1, ptr %7, align 4
  br label %46

34:                                               ; preds = %2
  %35 = load i32, ptr %6, align 4, !tbaa !11
  %36 = xor i32 %35, -1
  %37 = add i32 %36, 1
  store i32 %37, ptr %6, align 4, !tbaa !11
  %38 = load i32, ptr %6, align 4, !tbaa !11
  %39 = and i32 %38, -2147483648
  %40 = icmp eq i32 %39, 0
  br i1 %40, label %41, label %44

41:                                               ; preds = %34
  %42 = load i32, ptr %6, align 4, !tbaa !11
  %43 = sub nsw i32 0, %42
  store i32 %43, ptr %3, align 4
  store i32 1, ptr %7, align 4
  br label %46

44:                                               ; preds = %34
  %45 = load ptr, ptr %5, align 8, !tbaa !58
  store i32 1, ptr %45, align 4, !tbaa !11
  store i32 0, ptr %3, align 4
  store i32 1, ptr %7, align 4
  br label %46

46:                                               ; preds = %44, %41, %32
  call void @llvm.lifetime.end.p0(i64 4, ptr %6) #7
  %47 = load i32, ptr %3, align 4
  ret i32 %47
}

; Function Attrs: nounwind uwtable
define i32 @png_crc_finish(ptr noalias noundef %0, i32 noundef %1) #0 {
  %3 = alloca ptr, align 8
  %4 = alloca i32, align 4
  store ptr %0, ptr %3, align 8, !tbaa !3
  store i32 %1, ptr %4, align 4, !tbaa !11
  %5 = load ptr, ptr %3, align 8, !tbaa !3
  %6 = load i32, ptr %4, align 4, !tbaa !11
  %7 = call i32 @png_crc_finish_critical(ptr noundef %5, i32 noundef %6, i32 noundef 0)
  ret i32 %7
}

; Function Attrs: nounwind uwtable
define void @png_crc_read(ptr noalias noundef %0, ptr noundef %1, i32 noundef %2) #0 {
  %4 = alloca ptr, align 8
  %5 = alloca ptr, align 8
  %6 = alloca i32, align 4
  store ptr %0, ptr %4, align 8, !tbaa !3
  store ptr %1, ptr %5, align 8, !tbaa !8
  store i32 %2, ptr %6, align 4, !tbaa !11
  %7 = load ptr, ptr %4, align 8, !tbaa !3
  %8 = icmp eq ptr %7, null
  br i1 %8, label %9, label %10

9:                                                ; preds = %3
  br label %19

10:                                               ; preds = %3
  %11 = load ptr, ptr %4, align 8, !tbaa !3
  %12 = load ptr, ptr %5, align 8, !tbaa !8
  %13 = load i32, ptr %6, align 4, !tbaa !11
  %14 = zext i32 %13 to i64
  call void @png_read_data(ptr noundef %11, ptr noundef %12, i64 noundef %14)
  %15 = load ptr, ptr %4, align 8, !tbaa !3
  %16 = load ptr, ptr %5, align 8, !tbaa !8
  %17 = load i32, ptr %6, align 4, !tbaa !11
  %18 = zext i32 %17 to i64
  call void @png_calculate_crc(ptr noundef %15, ptr noundef %16, i64 noundef %18)
  br label %19

19:                                               ; preds = %10, %9
  ret void
}

; Function Attrs: nounwind uwtable
define internal i32 @png_handle_cHRM(ptr noalias noundef %0, ptr noalias noundef %1, i32 noundef %2) #0 {
  %4 = alloca i32, align 4
  %5 = alloca ptr, align 8
  %6 = alloca ptr, align 8
  %7 = alloca i32, align 4
  %8 = alloca i32, align 4
  %9 = alloca %struct.png_xy, align 4
  %10 = alloca [32 x i8], align 16
  %11 = alloca i32, align 4
  store ptr %0, ptr %5, align 8, !tbaa !3
  store ptr %1, ptr %6, align 8, !tbaa !13
  store i32 %2, ptr %7, align 4, !tbaa !11
  call void @llvm.lifetime.start.p0(i64 4, ptr %8) #7
  store i32 0, ptr %8, align 4, !tbaa !11
  call void @llvm.lifetime.start.p0(i64 32, ptr %9) #7
  call void @llvm.lifetime.start.p0(i64 32, ptr %10) #7
  %12 = load ptr, ptr %5, align 8, !tbaa !3
  %13 = getelementptr inbounds [32 x i8], ptr %10, i64 0, i64 0
  call void @png_crc_read(ptr noundef %12, ptr noundef %13, i32 noundef 32)
  %14 = load ptr, ptr %5, align 8, !tbaa !3
  %15 = call i32 @png_crc_finish(ptr noundef %14, i32 noundef 0)
  %16 = icmp ne i32 %15, 0
  br i1 %16, label %17, label %18

17:                                               ; preds = %3
  store i32 0, ptr %4, align 4
  store i32 1, ptr %11, align 4
  br label %83

18:                                               ; preds = %3
  %19 = getelementptr inbounds [32 x i8], ptr %10, i64 0, i64 0
  %20 = getelementptr inbounds i8, ptr %19, i64 0
  %21 = call i32 @png_get_int_32_checked(ptr noundef %20, ptr noundef %8)
  %22 = getelementptr inbounds nuw %struct.png_xy, ptr %9, i32 0, i32 6
  store i32 %21, ptr %22, align 4, !tbaa !133
  %23 = getelementptr inbounds [32 x i8], ptr %10, i64 0, i64 0
  %24 = getelementptr inbounds i8, ptr %23, i64 4
  %25 = call i32 @png_get_int_32_checked(ptr noundef %24, ptr noundef %8)
  %26 = getelementptr inbounds nuw %struct.png_xy, ptr %9, i32 0, i32 7
  store i32 %25, ptr %26, align 4, !tbaa !134
  %27 = getelementptr inbounds [32 x i8], ptr %10, i64 0, i64 0
  %28 = getelementptr inbounds i8, ptr %27, i64 8
  %29 = call i32 @png_get_int_32_checked(ptr noundef %28, ptr noundef %8)
  %30 = getelementptr inbounds nuw %struct.png_xy, ptr %9, i32 0, i32 0
  store i32 %29, ptr %30, align 4, !tbaa !135
  %31 = getelementptr inbounds [32 x i8], ptr %10, i64 0, i64 0
  %32 = getelementptr inbounds i8, ptr %31, i64 12
  %33 = call i32 @png_get_int_32_checked(ptr noundef %32, ptr noundef %8)
  %34 = getelementptr inbounds nuw %struct.png_xy, ptr %9, i32 0, i32 1
  store i32 %33, ptr %34, align 4, !tbaa !136
  %35 = getelementptr inbounds [32 x i8], ptr %10, i64 0, i64 0
  %36 = getelementptr inbounds i8, ptr %35, i64 16
  %37 = call i32 @png_get_int_32_checked(ptr noundef %36, ptr noundef %8)
  %38 = getelementptr inbounds nuw %struct.png_xy, ptr %9, i32 0, i32 2
  store i32 %37, ptr %38, align 4, !tbaa !137
  %39 = getelementptr inbounds [32 x i8], ptr %10, i64 0, i64 0
  %40 = getelementptr inbounds i8, ptr %39, i64 20
  %41 = call i32 @png_get_int_32_checked(ptr noundef %40, ptr noundef %8)
  %42 = getelementptr inbounds nuw %struct.png_xy, ptr %9, i32 0, i32 3
  store i32 %41, ptr %42, align 4, !tbaa !138
  %43 = getelementptr inbounds [32 x i8], ptr %10, i64 0, i64 0
  %44 = getelementptr inbounds i8, ptr %43, i64 24
  %45 = call i32 @png_get_int_32_checked(ptr noundef %44, ptr noundef %8)
  %46 = getelementptr inbounds nuw %struct.png_xy, ptr %9, i32 0, i32 4
  store i32 %45, ptr %46, align 4, !tbaa !139
  %47 = getelementptr inbounds [32 x i8], ptr %10, i64 0, i64 0
  %48 = getelementptr inbounds i8, ptr %47, i64 28
  %49 = call i32 @png_get_int_32_checked(ptr noundef %48, ptr noundef %8)
  %50 = getelementptr inbounds nuw %struct.png_xy, ptr %9, i32 0, i32 5
  store i32 %49, ptr %50, align 4, !tbaa !140
  %51 = load i32, ptr %8, align 4, !tbaa !11
  %52 = icmp ne i32 %51, 0
  br i1 %52, label %53, label %55

53:                                               ; preds = %18
  %54 = load ptr, ptr %5, align 8, !tbaa !3
  call void @png_chunk_benign_error(ptr noundef %54, ptr noundef @.str.30)
  store i32 0, ptr %4, align 4
  store i32 1, ptr %11, align 4
  br label %83

55:                                               ; preds = %18
  %56 = load ptr, ptr %5, align 8, !tbaa !3
  %57 = load ptr, ptr %6, align 8, !tbaa !13
  %58 = getelementptr inbounds nuw %struct.png_xy, ptr %9, i32 0, i32 6
  %59 = load i32, ptr %58, align 4, !tbaa !133
  %60 = getelementptr inbounds nuw %struct.png_xy, ptr %9, i32 0, i32 7
  %61 = load i32, ptr %60, align 4, !tbaa !134
  %62 = getelementptr inbounds nuw %struct.png_xy, ptr %9, i32 0, i32 0
  %63 = load i32, ptr %62, align 4, !tbaa !135
  %64 = getelementptr inbounds nuw %struct.png_xy, ptr %9, i32 0, i32 1
  %65 = load i32, ptr %64, align 4, !tbaa !136
  %66 = getelementptr inbounds nuw %struct.png_xy, ptr %9, i32 0, i32 2
  %67 = load i32, ptr %66, align 4, !tbaa !137
  %68 = getelementptr inbounds nuw %struct.png_xy, ptr %9, i32 0, i32 3
  %69 = load i32, ptr %68, align 4, !tbaa !138
  %70 = getelementptr inbounds nuw %struct.png_xy, ptr %9, i32 0, i32 4
  %71 = load i32, ptr %70, align 4, !tbaa !139
  %72 = getelementptr inbounds nuw %struct.png_xy, ptr %9, i32 0, i32 5
  %73 = load i32, ptr %72, align 4, !tbaa !140
  call void @png_set_cHRM_fixed(ptr noundef %56, ptr noundef %57, i32 noundef %59, i32 noundef %61, i32 noundef %63, i32 noundef %65, i32 noundef %67, i32 noundef %69, i32 noundef %71, i32 noundef %73)
  %74 = load ptr, ptr %5, align 8, !tbaa !3
  %75 = getelementptr inbounds nuw %struct.png_struct_def, ptr %74, i32 0, i32 37
  %76 = load i32, ptr %75, align 8, !tbaa !49
  %77 = and i32 %76, 65536
  %78 = icmp ne i32 %77, 0
  br i1 %78, label %82, label %79

79:                                               ; preds = %55
  %80 = load ptr, ptr %5, align 8, !tbaa !3
  %81 = getelementptr inbounds nuw %struct.png_struct_def, ptr %80, i32 0, i32 80
  call void @llvm.memcpy.p0.p0.i64(ptr align 8 %81, ptr align 4 %9, i64 32, i1 false), !tbaa.struct !141
  br label %82

82:                                               ; preds = %79, %55
  store i32 3, ptr %4, align 4
  store i32 1, ptr %11, align 4
  br label %83

83:                                               ; preds = %82, %53, %17
  call void @llvm.lifetime.end.p0(i64 32, ptr %10) #7
  call void @llvm.lifetime.end.p0(i64 32, ptr %9) #7
  call void @llvm.lifetime.end.p0(i64 4, ptr %8) #7
  %84 = load i32, ptr %4, align 4
  ret i32 %84
}