; Function Attrs: nounwind uwtable
define internal range(i32 0, 4) i32 @png_handle_cHRM(ptr noalias noundef %0, ptr noalias noundef %1, i32 %2) #0 {
  %4 = alloca [32 x i8], align 16
  call void @llvm.lifetime.start.p0(i64 32, ptr nonnull %4) #12
  %5 = icmp eq ptr %0, null
  br i1 %5, label %png_crc_read.exit, label %6

6:                                                ; preds = %3
  call void @png_read_data(ptr noundef nonnull %0, ptr noundef nonnull %4, i64 noundef 32) #12
  call void @png_calculate_crc(ptr noundef nonnull %0, ptr noundef nonnull %4, i64 noundef 32) #12
  br label %png_crc_read.exit

png_crc_read.exit:                                ; preds = %3, %6
  %7 = call fastcc range(i32 0, 2) i32 @png_crc_finish_critical(ptr noundef %0, i32 noundef 0, i32 noundef 0)
  %.not = icmp eq i32 %7, 0
  br i1 %.not, label %png_get_int_32_checked.exit, label %179

png_get_int_32_checked.exit:                      ; preds = %png_crc_read.exit
  %8 = load i8, ptr %4, align 16, !tbaa !3
  %9 = zext i8 %8 to i32
  %10 = shl nuw i32 %9, 24
  %11 = getelementptr inbounds nuw i8, ptr %4, i64 1
  %12 = load i8, ptr %11, align 1, !tbaa !3
  %13 = zext i8 %12 to i32
  %14 = shl nuw nsw i32 %13, 16
  %15 = getelementptr inbounds nuw i8, ptr %4, i64 2
  %16 = load i8, ptr %15, align 2, !tbaa !3
  %17 = zext i8 %16 to i32
  %18 = shl nuw nsw i32 %17, 8
  %19 = getelementptr inbounds nuw i8, ptr %4, i64 3
  %20 = load i8, ptr %19, align 1, !tbaa !3
  %21 = zext i8 %20 to i32
  %22 = or disjoint i32 %14, %21
  %23 = or disjoint i32 %22, %18
  %24 = or disjoint i32 %23, %10
  %25 = icmp slt i32 %10, 0
  %notsub.i = add i32 %24, -1
  %26 = icmp sgt i32 %notsub.i, -1
  %or.cond.i.not = select i1 %25, i1 %26, i1 false
  %spec.select41 = select i1 %or.cond.i.not, i32 0, i32 %24
  %27 = getelementptr inbounds nuw i8, ptr %4, i64 4
  %28 = load i8, ptr %27, align 4, !tbaa !3
  %29 = zext i8 %28 to i32
  %30 = shl nuw i32 %29, 24
  %31 = getelementptr inbounds nuw i8, ptr %4, i64 5
  %32 = load i8, ptr %31, align 1, !tbaa !3
  %33 = zext i8 %32 to i32
  %34 = shl nuw nsw i32 %33, 16
  %35 = getelementptr inbounds nuw i8, ptr %4, i64 6
  %36 = load i8, ptr %35, align 2, !tbaa !3
  %37 = zext i8 %36 to i32
  %38 = shl nuw nsw i32 %37, 8
  %39 = getelementptr inbounds nuw i8, ptr %4, i64 7
  %40 = load i8, ptr %39, align 1, !tbaa !3
  %41 = zext i8 %40 to i32
  %42 = or disjoint i32 %34, %41
  %43 = or disjoint i32 %42, %38
  %44 = or disjoint i32 %43, %30
  %45 = icmp slt i32 %30, 0
  %notsub.i9 = add i32 %44, -1
  %46 = icmp sgt i32 %notsub.i9, -1
  %or.cond.i10.not = select i1 %45, i1 %46, i1 false
  %.0.i11 = select i1 %or.cond.i10.not, i32 0, i32 %44
  %47 = getelementptr inbounds nuw i8, ptr %4, i64 8
  %48 = load i8, ptr %47, align 8, !tbaa !3
  %49 = zext i8 %48 to i32
  %50 = shl nuw i32 %49, 24
  %51 = getelementptr inbounds nuw i8, ptr %4, i64 9
  %52 = load i8, ptr %51, align 1, !tbaa !3
  %53 = zext i8 %52 to i32
  %54 = shl nuw nsw i32 %53, 16
  %55 = getelementptr inbounds nuw i8, ptr %4, i64 10
  %56 = load i8, ptr %55, align 2, !tbaa !3
  %57 = zext i8 %56 to i32
  %58 = shl nuw nsw i32 %57, 8
  %59 = getelementptr inbounds nuw i8, ptr %4, i64 11
  %60 = load i8, ptr %59, align 1, !tbaa !3
  %61 = zext i8 %60 to i32
  %62 = or disjoint i32 %54, %61
  %63 = or disjoint i32 %62, %58
  %64 = or disjoint i32 %63, %50
  %65 = icmp slt i32 %50, 0
  %notsub.i13 = add i32 %64, -1
  %66 = icmp sgt i32 %notsub.i13, -1
  %or.cond.i14.not = select i1 %65, i1 %66, i1 false
  %.0.i15 = select i1 %or.cond.i14.not, i32 0, i32 %64
  %67 = getelementptr inbounds nuw i8, ptr %4, i64 12
  %68 = load i8, ptr %67, align 4, !tbaa !3
  %69 = zext i8 %68 to i32
  %70 = shl nuw i32 %69, 24
  %71 = getelementptr inbounds nuw i8, ptr %4, i64 13
  %72 = load i8, ptr %71, align 1, !tbaa !3
  %73 = zext i8 %72 to i32
  %74 = shl nuw nsw i32 %73, 16
  %75 = getelementptr inbounds nuw i8, ptr %4, i64 14
  %76 = load i8, ptr %75, align 2, !tbaa !3
  %77 = zext i8 %76 to i32
  %78 = shl nuw nsw i32 %77, 8
  %79 = getelementptr inbounds nuw i8, ptr %4, i64 15
  %80 = load i8, ptr %79, align 1, !tbaa !3
  %81 = zext i8 %80 to i32
  %82 = or disjoint i32 %74, %81
  %83 = or disjoint i32 %82, %78
  %84 = or disjoint i32 %83, %70
  %85 = icmp slt i32 %70, 0
  %notsub.i17 = add i32 %84, -1
  %86 = icmp sgt i32 %notsub.i17, -1
  %or.cond.i18.not = select i1 %85, i1 %86, i1 false
  %.0.i19 = select i1 %or.cond.i18.not, i32 0, i32 %84
  %87 = getelementptr inbounds nuw i8, ptr %4, i64 16
  %88 = load i8, ptr %87, align 16, !tbaa !3
  %89 = zext i8 %88 to i32
  %90 = shl nuw i32 %89, 24
  %91 = getelementptr inbounds nuw i8, ptr %4, i64 17
  %92 = load i8, ptr %91, align 1, !tbaa !3
  %93 = zext i8 %92 to i32
  %94 = shl nuw nsw i32 %93, 16
  %95 = getelementptr inbounds nuw i8, ptr %4, i64 18
  %96 = load i8, ptr %95, align 2, !tbaa !3
  %97 = zext i8 %96 to i32
  %98 = shl nuw nsw i32 %97, 8
  %99 = getelementptr inbounds nuw i8, ptr %4, i64 19
  %100 = load i8, ptr %99, align 1, !tbaa !3
  %101 = zext i8 %100 to i32
  %102 = or disjoint i32 %94, %101
  %103 = or disjoint i32 %102, %98
  %104 = or disjoint i32 %103, %90
  %105 = icmp slt i32 %90, 0
  %notsub.i21 = add i32 %104, -1
  %106 = icmp sgt i32 %notsub.i21, -1
  %or.cond.i22.not = select i1 %105, i1 %106, i1 false
  %.0.i23 = select i1 %or.cond.i22.not, i32 0, i32 %104
  %107 = getelementptr inbounds nuw i8, ptr %4, i64 20
  %108 = load i8, ptr %107, align 4, !tbaa !3
  %109 = zext i8 %108 to i32
  %110 = shl nuw i32 %109, 24
  %111 = getelementptr inbounds nuw i8, ptr %4, i64 21
  %112 = load i8, ptr %111, align 1, !tbaa !3
  %113 = zext i8 %112 to i32
  %114 = shl nuw nsw i32 %113, 16
  %115 = getelementptr inbounds nuw i8, ptr %4, i64 22
  %116 = load i8, ptr %115, align 2, !tbaa !3
  %117 = zext i8 %116 to i32
  %118 = shl nuw nsw i32 %117, 8
  %119 = getelementptr inbounds nuw i8, ptr %4, i64 23
  %120 = load i8, ptr %119, align 1, !tbaa !3
  %121 = zext i8 %120 to i32
  %122 = or disjoint i32 %114, %121
  %123 = or disjoint i32 %122, %118
  %124 = or disjoint i32 %123, %110
  %125 = icmp slt i32 %110, 0
  %notsub.i25 = add i32 %124, -1
  %126 = icmp sgt i32 %notsub.i25, -1
  %or.cond.i26.not = select i1 %125, i1 %126, i1 false
  %.0.i27 = select i1 %or.cond.i26.not, i32 0, i32 %124
  %127 = getelementptr inbounds nuw i8, ptr %4, i64 24
  %128 = load i8, ptr %127, align 8, !tbaa !3
  %129 = zext i8 %128 to i32
  %130 = shl nuw i32 %129, 24
  %131 = getelementptr inbounds nuw i8, ptr %4, i64 25
  %132 = load i8, ptr %131, align 1, !tbaa !3
  %133 = zext i8 %132 to i32
  %134 = shl nuw nsw i32 %133, 16
  %135 = getelementptr inbounds nuw i8, ptr %4, i64 26
  %136 = load i8, ptr %135, align 2, !tbaa !3
  %137 = zext i8 %136 to i32
  %138 = shl nuw nsw i32 %137, 8
  %139 = getelementptr inbounds nuw i8, ptr %4, i64 27
  %140 = load i8, ptr %139, align 1, !tbaa !3
  %141 = zext i8 %140 to i32
  %142 = or disjoint i32 %134, %141
  %143 = or disjoint i32 %142, %138
  %144 = or disjoint i32 %143, %130
  %145 = icmp slt i32 %130, 0
  %notsub.i29 = add i32 %144, -1
  %146 = icmp sgt i32 %notsub.i29, -1
  %or.cond.i30.not = select i1 %145, i1 %146, i1 false
  %.0.i31 = select i1 %or.cond.i30.not, i32 0, i32 %144
  %147 = getelementptr inbounds nuw i8, ptr %4, i64 28
  %148 = load i8, ptr %147, align 4, !tbaa !3
  %149 = zext i8 %148 to i32
  %150 = shl nuw i32 %149, 24
  %151 = getelementptr inbounds nuw i8, ptr %4, i64 29
  %152 = load i8, ptr %151, align 1, !tbaa !3
  %153 = zext i8 %152 to i32
  %154 = shl nuw nsw i32 %153, 16
  %155 = getelementptr inbounds nuw i8, ptr %4, i64 30
  %156 = load i8, ptr %155, align 2, !tbaa !3
  %157 = zext i8 %156 to i32
  %158 = shl nuw nsw i32 %157, 8
  %159 = getelementptr inbounds nuw i8, ptr %4, i64 31
  %160 = load i8, ptr %159, align 1, !tbaa !3
  %161 = zext i8 %160 to i32
  %162 = or disjoint i32 %154, %161
  %163 = or disjoint i32 %162, %158
  %164 = or disjoint i32 %163, %150
  %165 = icmp slt i32 %150, 0
  %notsub.i33 = add i32 %164, -1
  %166 = icmp sgt i32 %notsub.i33, -1
  %or.cond.i34.not61 = select i1 %165, i1 %166, i1 false
  %167 = select i1 %or.cond.i34.not61, i1 true, i1 %or.cond.i30.not
  %168 = select i1 %167, i1 true, i1 %or.cond.i26.not
  %169 = select i1 %168, i1 true, i1 %or.cond.i22.not
  %170 = select i1 %169, i1 true, i1 %or.cond.i18.not
  %171 = select i1 %170, i1 true, i1 %or.cond.i14.not
  %172 = select i1 %171, i1 true, i1 %or.cond.i10.not
  %or.cond.not = select i1 %172, i1 true, i1 %or.cond.i.not
  br i1 %or.cond.not, label %png_get_int_32_checked.exit36.thread, label %173

png_get_int_32_checked.exit36.thread:             ; preds = %png_get_int_32_checked.exit
  call void @png_chunk_benign_error(ptr noundef %0, ptr noundef nonnull @.str.30) #12
  br label %179

173:                                              ; preds = %png_get_int_32_checked.exit
  call void @png_set_cHRM_fixed(ptr noundef %0, ptr noundef %1, i32 noundef %spec.select41, i32 noundef %.0.i11, i32 noundef %.0.i15, i32 noundef %.0.i19, i32 noundef %.0.i23, i32 noundef %.0.i27, i32 noundef %.0.i31, i32 noundef %164) #12
  %174 = getelementptr inbounds nuw i8, ptr %0, i64 504
  %175 = load i32, ptr %174, align 8, !tbaa !51
  %176 = and i32 %175, 65536
  %.not8 = icmp eq i32 %176, 0
  br i1 %.not8, label %177, label %179

177:                                              ; preds = %173
  %178 = getelementptr inbounds nuw i8, ptr %0, i64 680
  store i32 %.0.i15, ptr %178, align 8, !tbaa !59
  %.sroa.5.0..sroa_idx = getelementptr inbounds nuw i8, ptr %0, i64 684
  store i32 %.0.i19, ptr %.sroa.5.0..sroa_idx, align 4, !tbaa !59
  %.sroa.7.0..sroa_idx = getelementptr inbounds nuw i8, ptr %0, i64 688
  store i32 %.0.i23, ptr %.sroa.7.0..sroa_idx, align 8, !tbaa !59
  %.sroa.9.0..sroa_idx = getelementptr inbounds nuw i8, ptr %0, i64 692
  store i32 %.0.i27, ptr %.sroa.9.0..sroa_idx, align 4, !tbaa !59
  %.sroa.11.0..sroa_idx = getelementptr inbounds nuw i8, ptr %0, i64 696
  store i32 %.0.i31, ptr %.sroa.11.0..sroa_idx, align 8, !tbaa !59
  %.sroa.13.0..sroa_idx = getelementptr inbounds nuw i8, ptr %0, i64 700
  store i32 %164, ptr %.sroa.13.0..sroa_idx, align 4, !tbaa !59
  %.sroa.15.0..sroa_idx = getelementptr inbounds nuw i8, ptr %0, i64 704
  store i32 %spec.select41, ptr %.sroa.15.0..sroa_idx, align 8, !tbaa !59
  %.sroa.17.0..sroa_idx = getelementptr inbounds nuw i8, ptr %0, i64 708
  store i32 %.0.i11, ptr %.sroa.17.0..sroa_idx, align 4, !tbaa !59
  br label %179

179:                                              ; preds = %173, %177, %png_crc_read.exit, %png_get_int_32_checked.exit36.thread
  %.0 = phi i32 [ 0, %png_get_int_32_checked.exit36.thread ], [ 0, %png_crc_read.exit ], [ 3, %177 ], [ 3, %173 ]
  call void @llvm.lifetime.end.p0(i64 32, ptr nonnull %4) #12
  ret i32 %.0
}